target datalayout = "e-m:e-p270:32:32-p271:32:32-p272:64:64-i64:64-i128:128-f80:128-n8:16:32:64-S128"
target triple = "x86_64-pc-linux-gnu"

%struct.lean_object = type { i32, i32 }

; Function Attrs: inlinehint nounwind uwtable
define internal ptr @lean_box(i64 noundef %0) #0 {
  %2 = alloca i64, align 8
  store i64 %0, ptr %2, align 8, !tbaa !8
  %3 = load i64, ptr %2, align 8, !tbaa !8
  %4 = shl i64 %3, 1
  %5 = or i64 %4, 1
  %6 = inttoptr i64 %5 to ptr
  ret ptr %6
}

; Function Attrs: alwaysinline nounwind uwtable
define internal void @lean_dec_ref(ptr noundef %0) #1 {
  %2 = alloca ptr, align 8
  store ptr %0, ptr %2, align 8, !tbaa !4
  %3 = load ptr, ptr %2, align 8, !tbaa !4
  %4 = getelementptr inbounds nuw %struct.lean_object, ptr %3, i32 0, i32 0
  %5 = load i32, ptr %4, align 4, !tbaa !15
  %6 = icmp sgt i32 %5, 1
  %7 = zext i1 %6 to i32
  %8 = sext i32 %7 to i64
  %9 = call i64 @llvm.expect.i64(i64 %8, i64 1)
  %10 = icmp ne i64 %9, 0
  br i1 %10, label %11, label %16

11:                                               ; preds = %1
  %12 = load ptr, ptr %2, align 8, !tbaa !4
  %13 = getelementptr inbounds nuw %struct.lean_object, ptr %12, i32 0, i32 0
  %14 = load i32, ptr %13, align 4, !tbaa !15
  %15 = add i32 %14, -1
  store i32 %15, ptr %13, align 4, !tbaa !15
  br label %24

16:                                               ; preds = %1
  %17 = load ptr, ptr %2, align 8, !tbaa !4
  %18 = getelementptr inbounds nuw %struct.lean_object, ptr %17, i32 0, i32 0
  %19 = load i32, ptr %18, align 4, !tbaa !15
  %20 = icmp ne i32 %19, 0
  br i1 %20, label %21, label %23

21:                                               ; preds = %16
  %22 = load ptr, ptr %2, align 8, !tbaa !4
  call void @lean_dec_ref_cold(ptr noundef %22)
  br label %23

23:                                               ; preds = %21, %16
  br label %24

24:                                               ; preds = %23, %11
  ret void
}

; Function Attrs: inlinehint nounwind uwtable
define internal i64 @lean_unbox(ptr noundef %0) #0 {
  %2 = alloca ptr, align 8
  store ptr %0, ptr %2, align 8, !tbaa !4
  %3 = load ptr, ptr %2, align 8, !tbaa !4
  %4 = ptrtoint ptr %3 to i64
  %5 = lshr i64 %4, 1
  ret i64 %5
}

; Function Attrs: alwaysinline nounwind uwtable
define internal zeroext i1 @lean_is_scalar(ptr noundef %0) #1 {
  %2 = alloca ptr, align 8
  store ptr %0, ptr %2, align 8, !tbaa !4
  %3 = load ptr, ptr %2, align 8, !tbaa !4
  %4 = ptrtoint ptr %3 to i64
  %5 = and i64 %4, 1
  %6 = icmp eq i64 %5, 1
  ret i1 %6
}

; Function Attrs: inlinehint nounwind uwtable
define internal ptr @lean_usize_to_nat(i64 noundef %0) #0 {
  %2 = alloca ptr, align 8
  %3 = alloca i64, align 8
  store i64 %0, ptr %3, align 8, !tbaa !8
  %4 = load i64, ptr %3, align 8, !tbaa !8
  %5 = icmp ule i64 %4, 9223372036854775807
  %6 = zext i1 %5 to i32
  %7 = sext i32 %6 to i64
  %8 = call i64 @llvm.expect.i64(i64 %7, i64 1)
  %9 = icmp ne i64 %8, 0
  br i1 %9, label %10, label %13

10:                                               ; preds = %1
  %11 = load i64, ptr %3, align 8, !tbaa !8
  %12 = call ptr @lean_box(i64 noundef %11)
  store ptr %12, ptr %2, align 8
  br label %16

13:                                               ; preds = %1
  %14 = load i64, ptr %3, align 8, !tbaa !8
  %15 = call ptr @lean_big_usize_to_nat(i64 noundef %14)
  store ptr %15, ptr %2, align 8
  br label %16

16:                                               ; preds = %13, %10
  %17 = load ptr, ptr %2, align 8
  ret ptr %17
}

; Function Attrs: alwaysinline nounwind uwtable
define internal void @lean_dec(ptr noundef %0) #1 {
  %2 = alloca ptr, align 8
  store ptr %0, ptr %2, align 8, !tbaa !4
  %3 = load ptr, ptr %2, align 8, !tbaa !4
  %4 = call zeroext i1 @lean_is_scalar(ptr noundef %3)
  br i1 %4, label %7, label %5

5:                                                ; preds = %1
  %6 = load ptr, ptr %2, align 8, !tbaa !4
  call void @lean_dec_ref(ptr noundef %6)
  br label %7

7:                                                ; preds = %5, %1
  ret void
}

; Function Attrs: alwaysinline nounwind uwtable
define internal ptr @lean_nat_add(ptr noundef %0, ptr noundef %1) #1 {
  %3 = alloca ptr, align 8
  %4 = alloca ptr, align 8
  %5 = alloca ptr, align 8
  store ptr %0, ptr %4, align 8, !tbaa !4
  store ptr %1, ptr %5, align 8, !tbaa !4
  %6 = load ptr, ptr %4, align 8, !tbaa !4
  %7 = call zeroext i1 @lean_is_scalar(ptr noundef %6)
  br i1 %7, label %8, label %11

8:                                                ; preds = %2
  %9 = load ptr, ptr %5, align 8, !tbaa !4
  %10 = call zeroext i1 @lean_is_scalar(ptr noundef %9)
  br label %11

11:                                               ; preds = %8, %2
  %12 = phi i1 [ false, %2 ], [ %10, %8 ]
  %13 = zext i1 %12 to i32
  %14 = sext i32 %13 to i64
  %15 = call i64 @llvm.expect.i64(i64 %14, i64 1)
  %16 = icmp ne i64 %15, 0
  br i1 %16, label %17, label %24

17:                                               ; preds = %11
  %18 = load ptr, ptr %4, align 8, !tbaa !4
  %19 = call i64 @lean_unbox(ptr noundef %18)
  %20 = load ptr, ptr %5, align 8, !tbaa !4
  %21 = call i64 @lean_unbox(ptr noundef %20)
  %22 = add i64 %19, %21
  %23 = call ptr @lean_usize_to_nat(i64 noundef %22)
  store ptr %23, ptr %3, align 8
  br label %28

24:                                               ; preds = %11
  %25 = load ptr, ptr %4, align 8, !tbaa !4
  %26 = load ptr, ptr %5, align 8, !tbaa !4
  %27 = call ptr @lean_nat_big_add(ptr noundef %25, ptr noundef %26)
  store ptr %27, ptr %3, align 8
  br label %28

28:                                               ; preds = %24, %17
  %29 = load ptr, ptr %3, align 8
  ret ptr %29
}

; Function Attrs: inlinehint nounwind uwtable
define internal ptr @lean_unsigned_to_nat(i32 noundef %0) #0 {
  %2 = alloca i32, align 4
  store i32 %0, ptr %2, align 4, !tbaa !13
  %3 = load i32, ptr %2, align 4, !tbaa !13
  %4 = zext i32 %3 to i64
  %5 = call ptr @lean_usize_to_nat(i64 noundef %4)
  ret ptr %5
}

; Function Attrs: nounwind uwtable
define ptr @l_Lean_Meta_addImplicitTargets_collect___lambda__2(ptr noundef %0, ptr noundef %1, ptr noundef %2, ptr noundef %3, ptr noundef %4, ptr noundef %5, ptr noundef %6, ptr noundef %7, ptr noundef %8, ptr noundef %9, ptr noundef %10, ptr noundef %11, ptr noundef %12, ptr noundef %13) #2 {
  %15 = alloca ptr, align 8
  %16 = alloca ptr, align 8
  %17 = alloca ptr, align 8
  %18 = alloca ptr, align 8
  %19 = alloca ptr, align 8
  %20 = alloca ptr, align 8
  %21 = alloca ptr, align 8
  %22 = alloca ptr, align 8
  %23 = alloca ptr, align 8
  %24 = alloca ptr, align 8
  %25 = alloca ptr, align 8
  %26 = alloca ptr, align 8
  %27 = alloca ptr, align 8
  %28 = alloca ptr, align 8
  %29 = alloca ptr, align 8
  %30 = alloca ptr, align 8
  %31 = alloca ptr, align 8
  %32 = alloca ptr, align 8
  %33 = alloca ptr, align 8
  %34 = alloca ptr, align 8
  store ptr %0, ptr %15, align 8, !tbaa !4
  store ptr %1, ptr %16, align 8, !tbaa !4
  store ptr %2, ptr %17, align 8, !tbaa !4
  store ptr %3, ptr %18, align 8, !tbaa !4
  store ptr %4, ptr %19, align 8, !tbaa !4
  store ptr %5, ptr %20, align 8, !tbaa !4
  store ptr %6, ptr %21, align 8, !tbaa !4
  store ptr %7, ptr %22, align 8, !tbaa !4
  store ptr %8, ptr %23, align 8, !tbaa !4
  store ptr %9, ptr %24, align 8, !tbaa !4
  store ptr %10, ptr %25, align 8, !tbaa !4
  store ptr %11, ptr %26, align 8, !tbaa !4
  store ptr %12, ptr %27, align 8, !tbaa !4
  store ptr %13, ptr %28, align 8, !tbaa !4
  br label %35

35:                                               ; preds = %14
  call void @llvm.lifetime.start.p0(i64 8, ptr %29) #8
  call void @llvm.lifetime.start.p0(i64 8, ptr %30) #8
  call void @llvm.lifetime.start.p0(i64 8, ptr %31) #8
  call void @llvm.lifetime.start.p0(i64 8, ptr %32) #8
  call void @llvm.lifetime.start.p0(i64 8, ptr %33) #8
  call void @llvm.lifetime.start.p0(i64 8, ptr %34) #8
  %36 = load ptr, ptr %15, align 8, !tbaa !4
  %37 = load ptr, ptr %16, align 8, !tbaa !4
  %38 = call ptr @lean_expr_instantiate1(ptr noundef %36, ptr noundef %37)
  store ptr %38, ptr %29, align 8, !tbaa !4
  %39 = call ptr @lean_unsigned_to_nat(i32 noundef 1)
  store ptr %39, ptr %30, align 8, !tbaa !4
  %40 = load ptr, ptr %17, align 8, !tbaa !4
  %41 = load ptr, ptr %30, align 8, !tbaa !4
  %42 = call ptr @lean_nat_add(ptr noundef %40, ptr noundef %41)
  store ptr %42, ptr %31, align 8, !tbaa !4
  %43 = load ptr, ptr %18, align 8, !tbaa !4
  %44 = load ptr, ptr %30, align 8, !tbaa !4
  %45 = call ptr @lean_nat_add(ptr noundef %43, ptr noundef %44)
  store ptr %45, ptr %32, align 8, !tbaa !4
  %46 = load ptr, ptr %19, align 8, !tbaa !4
  %47 = load ptr, ptr %16, align 8, !tbaa !4
  %48 = call ptr @lean_array_push(ptr noundef %46, ptr noundef %47)
  store ptr %48, ptr %33, align 8, !tbaa !4
  %49 = load ptr, ptr %20, align 8, !tbaa !4
  %50 = load ptr, ptr %21, align 8, !tbaa !4
  %51 = load ptr, ptr %29, align 8, !tbaa !4
  %52 = load ptr, ptr %31, align 8, !tbaa !4
  %53 = load ptr, ptr %32, align 8, !tbaa !4
  %54 = load ptr, ptr %22, align 8, !tbaa !4
  %55 = load ptr, ptr %33, align 8, !tbaa !4
  %56 = load ptr, ptr %24, align 8, !tbaa !4
  %57 = load ptr, ptr %25, align 8, !tbaa !4
  %58 = load ptr, ptr %26, align 8, !tbaa !4
  %59 = load ptr, ptr %27, align 8, !tbaa !4
  %60 = load ptr, ptr %28, align 8, !tbaa !4
  %61 = call ptr @l_Lean_Meta_addImplicitTargets_collect(ptr noundef %49, ptr noundef %50, ptr noundef %51, ptr noundef %52, ptr noundef %53, ptr noundef %54, ptr noundef %55, ptr noundef %56, ptr noundef %57, ptr noundef %58, ptr noundef %59, ptr noundef %60)
  store ptr %61, ptr %34, align 8, !tbaa !4
  %62 = load ptr, ptr %32, align 8, !tbaa !4
  call void @lean_dec(ptr noundef %62)
  %63 = load ptr, ptr %34, align 8, !tbaa !4
  call void @llvm.lifetime.end.p0(i64 8, ptr %34) #8
  call void @llvm.lifetime.end.p0(i64 8, ptr %33) #8
  call void @llvm.lifetime.end.p0(i64 8, ptr %32) #8
  call void @llvm.lifetime.end.p0(i64 8, ptr %31) #8
  call void @llvm.lifetime.end.p0(i64 8, ptr %30) #8
  call void @llvm.lifetime.end.p0(i64 8, ptr %29) #8
  ret ptr %63
}