; Function Attrs: nounwind uwtable
define ptr @l_Lean_Meta_addImplicitTargets_collect___lambda__2(ptr noundef %0, ptr noundef %1, ptr noundef %2, ptr noundef %3, ptr noundef %4, ptr noundef %5, ptr noundef readonly captures(none) %6, ptr noundef %7, ptr readnone captures(none) %8, ptr noundef %9, ptr noundef %10, ptr noundef %11, ptr noundef %12, ptr noundef %13) local_unnamed_addr #1 {
  %15 = tail call ptr @lean_expr_instantiate1(ptr noundef %0, ptr noundef %1) #5
  %16 = ptrtoint ptr %2 to i64
  %17 = and i64 %16, 1
  %.not = icmp eq i64 %17, 0
  br i1 %.not, label %.critedge.i22, label %18, !prof !15

18:                                               ; preds = %14
  %19 = lshr i64 %16, 1
  %20 = add nuw i64 %19, 1
  %21 = icmp sgt i64 %20, -1
  br i1 %21, label %22, label %26, !prof !11

22:                                               ; preds = %18
  %23 = shl nuw i64 %20, 1
  %24 = or disjoint i64 %23, 1
  %25 = inttoptr i64 %24 to ptr
  br label %lean_nat_add.exit24

26:                                               ; preds = %18
  %27 = tail call ptr @lean_big_usize_to_nat(i64 noundef %20) #5
  br label %lean_nat_add.exit24

.critedge.i22:                                    ; preds = %14
  %28 = tail call ptr @lean_nat_big_add(ptr noundef %2, ptr noundef nonnull inttoptr (i64 3 to ptr)) #5
  br label %lean_nat_add.exit24

lean_nat_add.exit24:                              ; preds = %26, %22, %.critedge.i22
  %.0.i23 = phi ptr [ %28, %.critedge.i22 ], [ %25, %22 ], [ %27, %26 ]
  %29 = ptrtoint ptr %3 to i64
  %30 = and i64 %29, 1
  %.not28 = icmp eq i64 %30, 0
  br i1 %.not28, label %.critedge.i, label %31, !prof !15

31:                                               ; preds = %lean_nat_add.exit24
  %32 = lshr i64 %29, 1
  %33 = add nuw i64 %32, 1
  %34 = icmp sgt i64 %33, -1
  br i1 %34, label %35, label %39, !prof !11

35:                                               ; preds = %31
  %36 = shl nuw i64 %33, 1
  %37 = or disjoint i64 %36, 1
  %38 = inttoptr i64 %37 to ptr
  br label %lean_nat_add.exit

39:                                               ; preds = %31
  %40 = tail call ptr @lean_big_usize_to_nat(i64 noundef %33) #5
  br label %lean_nat_add.exit

.critedge.i:                                      ; preds = %lean_nat_add.exit24
  %41 = tail call ptr @lean_nat_big_add(ptr noundef %3, ptr noundef nonnull inttoptr (i64 3 to ptr)) #5
  br label %lean_nat_add.exit

lean_nat_add.exit:                                ; preds = %39, %35, %.critedge.i
  %.0.i = phi ptr [ %41, %.critedge.i ], [ %38, %35 ], [ %40, %39 ]
  %42 = tail call ptr @lean_array_push(ptr noundef %4, ptr noundef %1) #5
  %43 = tail call ptr @l_Lean_Meta_addImplicitTargets_collect(ptr noundef %5, ptr noundef %6, ptr noundef %15, ptr noundef %.0.i23, ptr noundef %.0.i, ptr noundef %7, ptr noundef %42, ptr noundef %9, ptr noundef %10, ptr noundef %11, ptr noundef %12, ptr noundef %13)
  %44 = ptrtoint ptr %.0.i to i64
  %45 = and i64 %44, 1
  %.not29 = icmp eq i64 %45, 0
  br i1 %.not29, label %46, label %lean_dec.exit

46:                                               ; preds = %lean_nat_add.exit
  %47 = load i32, ptr %.0.i, align 4, !tbaa !4
  %48 = icmp sgt i32 %47, 1
  br i1 %48, label %49, label %51, !prof !11

49:                                               ; preds = %46
  %50 = add nsw i32 %47, -1
  store i32 %50, ptr %.0.i, align 4, !tbaa !4
  br label %lean_dec.exit

51:                                               ; preds = %46
  %.not.i = icmp eq i32 %47, 0
  br i1 %.not.i, label %lean_dec.exit, label %52

52:                                               ; preds = %51
  tail call void @lean_dec_ref_cold(ptr noundef nonnull %.0.i) #5
  br label %lean_dec.exit

lean_dec.exit:                                    ; preds = %52, %51, %49, %lean_nat_add.exit
  ret ptr %43
}